target datalayout = "e-m:e-p270:32:32-p271:32:32-p272:64:64-i64:64-i128:128-f80:128-n8:16:32:64-S128"
target triple = "x86_64-unknown-linux-gnu"

%"class.hermes::vm::PinnedHermesValue" = type { %"class.hermes::vm::HermesValue" }
%"class.hermes::vm::HermesValue" = type { i64 }
%"class.std::__cxx11::basic_string" = type { %"struct.std::__cxx11::basic_string<char>::_Alloc_hider", i64, %union.anon }
%"struct.std::__cxx11::basic_string<char>::_Alloc_hider" = type { ptr }
%union.anon = type { i64, [8 x i8] }
%"class.std::allocator" = type { i8 }
%"class.hermes::vm::CompressedPointer" = type { %"class.hermes::vm::BasedPointer" }
%"class.hermes::vm::BasedPointer" = type { i32 }
%"class.hermes::vm::HandleBase" = type { ptr }
%"class.facebook::jsi::Pointer" = type { ptr }
%"class.hermes::vm::JSObject" = type { %"class.hermes::vm::GCCell", %"struct.hermes::vm::ObjectFlags", %"class.hermes::vm::GCPointer", %"class.hermes::vm::GCPointer.354", %"class.hermes::vm::GCPointer.355" }
%"class.hermes::vm::GCCell" = type { %union.anon.281 }
%union.anon.281 = type { %"class.hermes::vm::KindAndSize" }
%"class.hermes::vm::KindAndSize" = type { i32 }
%"struct.hermes::vm::ObjectFlags" = type { i32 }
%"class.hermes::vm::GCPointer" = type { %"class.hermes::vm::GCPointerBase" }
%"class.hermes::vm::GCPointerBase" = type { %"class.hermes::vm::CompressedPointer" }
%"class.hermes::vm::GCPointer.354" = type { %"class.hermes::vm::GCPointerBase" }
%"class.hermes::vm::GCPointer.355" = type { %"class.hermes::vm::GCPointerBase" }
%"class.hermes::vm::Handle.389" = type { %"class.hermes::vm::HandleBase" }
%"class.hermes::vm::JSArrayBuffer" = type <{ %"class.hermes::vm::JSObject", [4 x i8], %"class.hermes::vm::XorPtr", i32, i8, i8, [2 x i8] }>
%"class.hermes::vm::XorPtr" = type { i64 }
%"struct.facebook::hermes::HermesRuntimeImpl::ManagedValue" = type { %"struct.facebook::jsi::Runtime::PointerValue", %"struct.std::atomic.315", %union.anon.317 }
%"struct.facebook::jsi::Runtime::PointerValue" = type { ptr }
%"struct.std::atomic.315" = type { %"struct.std::__atomic_base.316" }
%"struct.std::__atomic_base.316" = type { i32 }
%union.anon.317 = type { %"class.hermes::vm::PinnedHermesValue" }

@_ZTIN8facebook3jsi18JSINativeExceptionE = external constant ptr
@.str.24 = private unnamed_addr constant [25 x i8] c"ArrayBuffer is detached.\00", align 1

; Function Attrs: mustprogress nounwind uwtable
define linkonce_odr hidden noundef ptr @_ZNK6hermes2vm11HermesValue10getPointerEv(ptr noundef nonnull align 8 dereferenceable(8) %this) #1 comdat align 2 {
entry:
  %this.addr = alloca ptr, align 8
  store ptr %this, ptr %this.addr, align 8
  %this1 = load ptr, ptr %this.addr, align 8
  %raw_ = getelementptr inbounds %"class.hermes::vm::HermesValue", ptr %this1, i32 0, i32 0
  %0 = load i64, ptr %raw_, align 8
  %and = and i64 %0, 281474976710655
  %1 = inttoptr i64 %and to ptr
  ret ptr %1
}

; Function Attrs: mustprogress uwtable
define linkonce_odr hidden noundef ptr @_ZNK6hermes2vm11HermesValue9getObjectEv(ptr noundef nonnull align 8 dereferenceable(8) %this) #0 comdat align 2 {
entry:
  %this.addr = alloca ptr, align 8
  store ptr %this, ptr %this.addr, align 8
  %this1 = load ptr, ptr %this.addr, align 8
  %call = call noundef ptr @_ZNK6hermes2vm11HermesValue10getPointerEv(ptr noundef nonnull align 8 dereferenceable(8) %this1)
  ret ptr %call
}

; Function Attrs: mustprogress nounwind uwtable
define linkonce_odr hidden void @_ZN6hermes2vm10HandleBaseC2EPKNS0_17PinnedHermesValueE(ptr noundef nonnull align 8 dereferenceable(8) %this, ptr noundef %valueAddr) unnamed_addr #1 comdat align 2 {
entry:
  %this.addr = alloca ptr, align 8
  %valueAddr.addr = alloca ptr, align 8
  store ptr %this, ptr %this.addr, align 8
  store ptr %valueAddr, ptr %valueAddr.addr, align 8
  %this1 = load ptr, ptr %this.addr, align 8
  %handle_ = getelementptr inbounds %"class.hermes::vm::HandleBase", ptr %this1, i32 0, i32 0
  %0 = load ptr, ptr %valueAddr.addr, align 8
  store ptr %0, ptr %handle_, align 8
  ret void
}

; Function Attrs: mustprogress uwtable
define linkonce_odr hidden noundef ptr @_ZN6hermes2vm17HermesValueTraitsINS0_13JSArrayBufferELb1EE6decodeENS0_11HermesValueE(i64 %value.coerce) #0 comdat align 2 {
entry:
  %value = alloca %"class.hermes::vm::HermesValue", align 8
  %coerce.dive = getelementptr inbounds %"class.hermes::vm::HermesValue", ptr %value, i32 0, i32 0
  store i64 %value.coerce, ptr %coerce.dive, align 8
  %call = call noundef ptr @_ZNK6hermes2vm11HermesValue9getObjectEv(ptr noundef nonnull align 8 dereferenceable(8) %value)
  ret ptr %call
}

; Function Attrs: mustprogress nounwind uwtable
define linkonce_odr hidden void @_ZN6hermes2vm6HandleINS0_13JSArrayBufferEEC2EPKNS0_17PinnedHermesValueEb(ptr noundef nonnull align 8 dereferenceable(8) %this, ptr noundef %valueAddr, i1 noundef zeroext %0) unnamed_addr #1 comdat align 2 {
entry:
  %this.addr = alloca ptr, align 8
  %valueAddr.addr = alloca ptr, align 8
  %.addr = alloca i8, align 1
  store ptr %this, ptr %this.addr, align 8
  store ptr %valueAddr, ptr %valueAddr.addr, align 8
  %frombool = zext i1 %0 to i8
  store i8 %frombool, ptr %.addr, align 1
  %this1 = load ptr, ptr %this.addr, align 8
  %1 = load ptr, ptr %valueAddr.addr, align 8
  call void @_ZN6hermes2vm10HandleBaseC2EPKNS0_17PinnedHermesValueE(ptr noundef nonnull align 8 dereferenceable(8) %this1, ptr noundef %1)
  ret void
}

; Function Attrs: mustprogress nounwind uwtable
define linkonce_odr hidden void @_ZN6hermes2vm15HermesValueCastINS0_13JSArrayBufferELb1EE11assertValidENS0_11HermesValueE(i64 %x.coerce) #1 comdat align 2 {
entry:
  %x = alloca %"class.hermes::vm::HermesValue", align 8
  %coerce.dive = getelementptr inbounds %"class.hermes::vm::HermesValue", ptr %x, i32 0, i32 0
  store i64 %x.coerce, ptr %coerce.dive, align 8
  ret void
}

; Function Attrs: mustprogress nounwind uwtable
define linkonce_odr hidden noundef nonnull align 8 dereferenceable(8) ptr @_ZNK8facebook6hermes17HermesRuntimeImpl12ManagedValueIN6hermes2vm17PinnedHermesValueEE5valueEv(ptr noundef nonnull align 8 dereferenceable(24) %this) #1 comdat align 2 {
entry:
  %this.addr = alloca ptr, align 8
  store ptr %this, ptr %this.addr, align 8
  %this1 = load ptr, ptr %this.addr, align 8
  %0 = getelementptr inbounds %"struct.facebook::hermes::HermesRuntimeImpl::ManagedValue", ptr %this1, i32 0, i32 2
  ret ptr %0
}

; Function Attrs: mustprogress nounwind uwtable
define linkonce_odr noundef ptr @_ZN8facebook3jsi7Runtime15getPointerValueERKNS0_7PointerE(ptr noundef nonnull align 8 dereferenceable(8) %pointer) #1 comdat align 2 {
entry:
  %pointer.addr = alloca ptr, align 8
  store ptr %pointer, ptr %pointer.addr, align 8
  %0 = load ptr, ptr %pointer.addr, align 8
  %ptr_ = getelementptr inbounds %"class.facebook::jsi::Pointer", ptr %0, i32 0, i32 0
  %1 = load ptr, ptr %ptr_, align 8
  ret ptr %1
}

; Function Attrs: mustprogress uwtable
define linkonce_odr hidden noundef ptr @_ZN6hermes2vm17HermesValueTraitsINS0_13JSArrayBufferELb1EE5arrowERKNS0_11HermesValueE(ptr noundef nonnull align 8 dereferenceable(8) %value) #0 comdat align 2 {
entry:
  %value.addr = alloca ptr, align 8
  %res = alloca ptr, align 8
  %agg.tmp = alloca %"class.hermes::vm::HermesValue", align 8
  store ptr %value, ptr %value.addr, align 8
  %0 = load ptr, ptr %value.addr, align 8
  call void @llvm.memcpy.p0.p0.i64(ptr align 8 %agg.tmp, ptr align 8 %0, i64 8, i1 false)
  %coerce.dive = getelementptr inbounds %"class.hermes::vm::HermesValue", ptr %agg.tmp, i32 0, i32 0
  %1 = load i64, ptr %coerce.dive, align 8
  %call = call noundef ptr @_ZN6hermes2vm17HermesValueTraitsINS0_13JSArrayBufferELb1EE6decodeENS0_11HermesValueE(i64 %1)
  store ptr %call, ptr %res, align 8
  %2 = load ptr, ptr %res, align 8
  ret ptr %2
}

; Function Attrs: mustprogress nounwind uwtable
define linkonce_odr hidden noundef ptr @_ZNK6hermes2vm10HandleBase9handleRefEv(ptr noundef nonnull align 8 dereferenceable(8) %this) #1 comdat align 2 {
entry:
  %this.addr = alloca ptr, align 8
  store ptr %this, ptr %this.addr, align 8
  %this1 = load ptr, ptr %this.addr, align 8
  %handle_ = getelementptr inbounds %"class.hermes::vm::HandleBase", ptr %this1, i32 0, i32 0
  %0 = load ptr, ptr %handle_, align 8
  ret ptr %0
}

; Function Attrs: mustprogress uwtable
define linkonce_odr hidden ptr @_ZN6hermes2vm6HandleINS0_13JSArrayBufferEE6vmcastEPKNS0_17PinnedHermesValueE(ptr noundef %valueAddr) #0 comdat align 2 {
entry:
  %retval = alloca %"class.hermes::vm::Handle.389", align 8
  %valueAddr.addr = alloca ptr, align 8
  %agg.tmp = alloca %"class.hermes::vm::HermesValue", align 8
  store ptr %valueAddr, ptr %valueAddr.addr, align 8
  %0 = load ptr, ptr %valueAddr.addr, align 8
  call void @llvm.memcpy.p0.p0.i64(ptr align 8 %agg.tmp, ptr align 8 %0, i64 8, i1 false)
  %coerce.dive = getelementptr inbounds %"class.hermes::vm::HermesValue", ptr %agg.tmp, i32 0, i32 0
  %1 = load i64, ptr %coerce.dive, align 8
  call void @_ZN6hermes2vm15HermesValueCastINS0_13JSArrayBufferELb1EE11assertValidENS0_11HermesValueE(i64 %1)
  %2 = load ptr, ptr %valueAddr.addr, align 8
  call void @_ZN6hermes2vm6HandleINS0_13JSArrayBufferEEC2EPKNS0_17PinnedHermesValueEb(ptr noundef nonnull align 8 dereferenceable(8) %retval, ptr noundef %2, i1 noundef zeroext true)
  %coerce.dive1 = getelementptr inbounds %"class.hermes::vm::Handle.389", ptr %retval, i32 0, i32 0
  %coerce.dive2 = getelementptr inbounds %"class.hermes::vm::HandleBase", ptr %coerce.dive1, i32 0, i32 0
  %3 = load ptr, ptr %coerce.dive2, align 8
  ret ptr %3
}

; Function Attrs: mustprogress uwtable
define linkonce_odr hidden noundef nonnull align 8 dereferenceable(8) ptr @_ZN8facebook6hermes17HermesRuntimeImpl3phvERKNS_3jsi7PointerE(ptr noundef nonnull align 8 dereferenceable(8) %pointer) #0 comdat align 2 {
entry:
  %pointer.addr = alloca ptr, align 8
  store ptr %pointer, ptr %pointer.addr, align 8
  %0 = load ptr, ptr %pointer.addr, align 8
  %call = call noundef ptr @_ZN8facebook3jsi7Runtime15getPointerValueERKNS0_7PointerE(ptr noundef nonnull align 8 dereferenceable(8) %0)
  %call1 = call noundef nonnull align 8 dereferenceable(8) ptr @_ZNK8facebook6hermes17HermesRuntimeImpl12ManagedValueIN6hermes2vm17PinnedHermesValueEE5valueEv(ptr noundef nonnull align 8 dereferenceable(24) %call)
  ret ptr %call1
}

; Function Attrs: mustprogress nounwind uwtable
define linkonce_odr hidden noundef i32 @_ZNK6hermes2vm13JSArrayBuffer4sizeEv(ptr noundef nonnull align 8 dereferenceable(40) %this) #1 comdat align 2 {
entry:
  %this.addr = alloca ptr, align 8
  store ptr %this, ptr %this.addr, align 8
  %this1 = load ptr, ptr %this.addr, align 8
  %size_ = getelementptr inbounds %"class.hermes::vm::JSArrayBuffer", ptr %this1, i32 0, i32 3
  %0 = load i32, ptr %size_, align 8
  ret i32 %0
}

; Function Attrs: mustprogress nounwind uwtable
define linkonce_odr hidden noundef zeroext i1 @_ZNK6hermes2vm13JSArrayBuffer8attachedEv(ptr noundef nonnull align 8 dereferenceable(40) %this) #1 comdat align 2 {
entry:
  %this.addr = alloca ptr, align 8
  store ptr %this, ptr %this.addr, align 8
  %this1 = load ptr, ptr %this.addr, align 8
  %attached_ = getelementptr inbounds %"class.hermes::vm::JSArrayBuffer", ptr %this1, i32 0, i32 5
  %0 = load i8, ptr %attached_, align 1
  %tobool = trunc i8 %0 to i1
  ret i1 %tobool
}

; Function Attrs: mustprogress uwtable
define linkonce_odr hidden noundef ptr @_ZNK6hermes2vm6HandleINS0_13JSArrayBufferEEptEv(ptr noundef nonnull align 8 dereferenceable(8) %this) #0 comdat align 2 {
entry:
  %this.addr = alloca ptr, align 8
  store ptr %this, ptr %this.addr, align 8
  %this1 = load ptr, ptr %this.addr, align 8
  %call = call noundef ptr @_ZNK6hermes2vm10HandleBase9handleRefEv(ptr noundef nonnull align 8 dereferenceable(8) %this1)
  %call2 = call noundef ptr @_ZN6hermes2vm17HermesValueTraitsINS0_13JSArrayBufferELb1EE5arrowERKNS0_11HermesValueE(ptr noundef nonnull align 8 dereferenceable(8) %call)
  ret ptr %call2
}

; Function Attrs: mustprogress uwtable
define linkonce_odr hidden ptr @_ZN8facebook6hermes17HermesRuntimeImpl17arrayBufferHandleERKNS_3jsi11ArrayBufferE(ptr noundef nonnull align 8 dereferenceable(8) %arr) #0 comdat align 2 {
entry:
  %retval = alloca %"class.hermes::vm::Handle.389", align 8
  %arr.addr = alloca ptr, align 8
  store ptr %arr, ptr %arr.addr, align 8
  %0 = load ptr, ptr %arr.addr, align 8
  %call = call noundef nonnull align 8 dereferenceable(8) ptr @_ZN8facebook6hermes17HermesRuntimeImpl3phvERKNS_3jsi7PointerE(ptr noundef nonnull align 8 dereferenceable(8) %0)
  %call1 = call ptr @_ZN6hermes2vm6HandleINS0_13JSArrayBufferEE6vmcastEPKNS0_17PinnedHermesValueE(ptr noundef %call)
  %coerce.dive = getelementptr inbounds %"class.hermes::vm::Handle.389", ptr %retval, i32 0, i32 0
  %coerce.dive2 = getelementptr inbounds %"class.hermes::vm::HandleBase", ptr %coerce.dive, i32 0, i32 0
  store ptr %call1, ptr %coerce.dive2, align 8
  %coerce.dive3 = getelementptr inbounds %"class.hermes::vm::Handle.389", ptr %retval, i32 0, i32 0
  %coerce.dive4 = getelementptr inbounds %"class.hermes::vm::HandleBase", ptr %coerce.dive3, i32 0, i32 0
  %1 = load ptr, ptr %coerce.dive4, align 8
  ret ptr %1
}

; Function Attrs: mustprogress uwtable
define hidden noundef i64 @_ZN8facebook6hermes17HermesRuntimeImpl4sizeERKNS_3jsi11ArrayBufferE(ptr noundef nonnull align 8 dereferenceable(184) %this, ptr noundef nonnull align 8 dereferenceable(8) %arr) unnamed_addr #0 align 2 personality ptr @__gxx_personality_v0 {
entry:
  %this.addr = alloca ptr, align 8
  %arr.addr = alloca ptr, align 8
  %ab = alloca %"class.hermes::vm::Handle.389", align 8
  %agg.tmp = alloca %"class.std::__cxx11::basic_string", align 8
  %ref.tmp = alloca %"class.std::allocator", align 1
  %exn.slot = alloca ptr, align 8
  %ehselector.slot = alloca i32, align 4
  %cleanup.isactive = alloca i1, align 1
  store ptr %this, ptr %this.addr, align 8
  store ptr %arr, ptr %arr.addr, align 8
  %0 = load ptr, ptr %arr.addr, align 8
  %call = call ptr @_ZN8facebook6hermes17HermesRuntimeImpl17arrayBufferHandleERKNS_3jsi11ArrayBufferE(ptr noundef nonnull align 8 dereferenceable(8) %0)
  %coerce.dive = getelementptr inbounds %"class.hermes::vm::Handle.389", ptr %ab, i32 0, i32 0
  %coerce.dive2 = getelementptr inbounds %"class.hermes::vm::HandleBase", ptr %coerce.dive, i32 0, i32 0
  store ptr %call, ptr %coerce.dive2, align 8
  %call3 = call noundef ptr @_ZNK6hermes2vm6HandleINS0_13JSArrayBufferEEptEv(ptr noundef nonnull align 8 dereferenceable(8) %ab)
  %call4 = call noundef zeroext i1 @_ZNK6hermes2vm13JSArrayBuffer8attachedEv(ptr noundef nonnull align 8 dereferenceable(40) %call3)
  %lnot = xor i1 %call4, true
  br i1 %lnot, label %if.then, label %if.end

if.then:                                          ; preds = %entry
  store i1 true, ptr %cleanup.isactive, align 1
  %exception = call ptr @__cxa_allocate_exception(i64 40) #19
  call void @_ZNSaIcEC1Ev(ptr noundef nonnull align 1 dereferenceable(1) %ref.tmp) #19
  invoke void @_ZNSt7__cxx1112basic_stringIcSt11char_traitsIcESaIcEEC2IS3_EEPKcRKS3_(ptr noundef nonnull align 8 dereferenceable(32) %agg.tmp, ptr noundef @.str.24, ptr noundef nonnull align 1 dereferenceable(1) %ref.tmp)
          to label %invoke.cont unwind label %lpad

invoke.cont:                                      ; preds = %if.then
  invoke void @_ZN8facebook3jsi18JSINativeExceptionC2ENSt7__cxx1112basic_stringIcSt11char_traitsIcESaIcEEE(ptr noundef nonnull align 8 dereferenceable(40) %exception, ptr noundef %agg.tmp)
          to label %invoke.cont6 unwind label %lpad5

invoke.cont6:                                     ; preds = %invoke.cont
  store i1 false, ptr %cleanup.isactive, align 1
  invoke void @__cxa_throw(ptr %exception, ptr @_ZTIN8facebook3jsi18JSINativeExceptionE, ptr @_ZN8facebook3jsi18JSINativeExceptionD1Ev) #21
          to label %unreachable unwind label %lpad5

lpad:                                             ; preds = %if.then
  %1 = landingpad { ptr, i32 }
          cleanup
  %2 = extractvalue { ptr, i32 } %1, 0
  store ptr %2, ptr %exn.slot, align 8
  %3 = extractvalue { ptr, i32 } %1, 1
  store i32 %3, ptr %ehselector.slot, align 4
  br label %ehcleanup

lpad5:                                            ; preds = %invoke.cont6, %invoke.cont
  %4 = landingpad { ptr, i32 }
          cleanup
  %5 = extractvalue { ptr, i32 } %4, 0
  store ptr %5, ptr %exn.slot, align 8
  %6 = extractvalue { ptr, i32 } %4, 1
  store i32 %6, ptr %ehselector.slot, align 4
  call void @_ZNSt7__cxx1112basic_stringIcSt11char_traitsIcESaIcEED1Ev(ptr noundef nonnull align 8 dereferenceable(32) %agg.tmp) #19
  br label %ehcleanup

ehcleanup:                                        ; preds = %lpad5, %lpad
  call void @_ZNSaIcED1Ev(ptr noundef nonnull align 1 dereferenceable(1) %ref.tmp) #19
  %cleanup.is_active = load i1, ptr %cleanup.isactive, align 1
  br i1 %cleanup.is_active, label %cleanup.action, label %cleanup.done

cleanup.action:                                   ; preds = %ehcleanup
  call void @__cxa_free_exception(ptr %exception) #19
  br label %cleanup.done

cleanup.done:                                     ; preds = %cleanup.action, %ehcleanup
  br label %eh.resume

if.end:                                           ; preds = %entry
  %call8 = call noundef ptr @_ZNK6hermes2vm6HandleINS0_13JSArrayBufferEEptEv(ptr noundef nonnull align 8 dereferenceable(8) %ab)
  %call9 = call noundef i32 @_ZNK6hermes2vm13JSArrayBuffer4sizeEv(ptr noundef nonnull align 8 dereferenceable(40) %call8)
  %conv = zext i32 %call9 to i64
  ret i64 %conv

eh.resume:                                        ; preds = %cleanup.done
  %exn = load ptr, ptr %exn.slot, align 8
  %sel = load i32, ptr %ehselector.slot, align 4
  %lpad.val = insertvalue { ptr, i32 } poison, ptr %exn, 0
  %lpad.val10 = insertvalue { ptr, i32 } %lpad.val, i32 %sel, 1
  resume { ptr, i32 } %lpad.val10

unreachable:                                      ; preds = %invoke.cont6
  unreachable
}