; Function Attrs: mustprogress uwtable
define hidden noundef i64 @_ZN8facebook6hermes17HermesRuntimeImpl4sizeERKNS_3jsi11ArrayBufferE(ptr nocapture nonnull readnone align 8 %this, ptr nocapture noundef nonnull readonly align 8 dereferenceable(8) %arr) unnamed_addr #0 align 2 personality ptr @__gxx_personality_v0 {
entry:
  %agg.tmp = alloca %"class.std::__cxx11::basic_string", align 8
  %ref.tmp = alloca %"class.std::allocator", align 1
  %0 = load ptr, ptr %arr, align 8
  %1 = getelementptr inbounds i8, ptr %0, i64 16
  %agg.tmp.sroa.0.0.copyload.i.i = load i64, ptr %1, align 8
  %and.i.i.i.i.i = and i64 %agg.tmp.sroa.0.0.copyload.i.i, 281474976710655
  %2 = inttoptr i64 %and.i.i.i.i.i to ptr
  %attached_.i = getelementptr inbounds i8, ptr %2, i64 37
  %3 = load i8, ptr %attached_.i, align 1
  %4 = and i8 %3, 1
  %tobool.i.not = icmp eq i8 %4, 0
  br i1 %tobool.i.not, label %if.then, label %if.end

if.then:                                          ; preds = %entry
  %exception = tail call ptr @__cxa_allocate_exception(i64 40) #37
  call void @_ZNSaIcEC1Ev(ptr noundef nonnull align 1 dereferenceable(1) %ref.tmp) #37
  invoke void @_ZNSt7__cxx1112basic_stringIcSt11char_traitsIcESaIcEEC2IS3_EEPKcRKS3_(ptr noundef nonnull align 8 dereferenceable(32) %agg.tmp, ptr noundef nonnull @.str.24, ptr noundef nonnull align 1 dereferenceable(1) %ref.tmp)
          to label %invoke.cont unwind label %ehcleanup.thread

invoke.cont:                                      ; preds = %if.then
  invoke void @_ZN8facebook3jsi18JSINativeExceptionC2ENSt7__cxx1112basic_stringIcSt11char_traitsIcESaIcEEE(ptr noundef nonnull align 8 dereferenceable(40) %exception, ptr noundef nonnull %agg.tmp)
          to label %invoke.cont6 unwind label %ehcleanup

invoke.cont6:                                     ; preds = %invoke.cont
  invoke void @__cxa_throw(ptr nonnull %exception, ptr nonnull @_ZTIN8facebook3jsi18JSINativeExceptionE, ptr nonnull @_ZN8facebook3jsi18JSINativeExceptionD1Ev) #39
          to label %unreachable unwind label %ehcleanup

ehcleanup.thread:                                 ; preds = %if.then
  %5 = landingpad { ptr, i32 }
          cleanup
  call void @_ZNSaIcED1Ev(ptr noundef nonnull align 1 dereferenceable(1) %ref.tmp) #37
  br label %cleanup.action

ehcleanup:                                        ; preds = %invoke.cont, %invoke.cont6
  %cleanup.isactive.0 = phi i1 [ false, %invoke.cont6 ], [ true, %invoke.cont ]
  %6 = landingpad { ptr, i32 }
          cleanup
  call void @_ZNSt7__cxx1112basic_stringIcSt11char_traitsIcESaIcEED1Ev(ptr noundef nonnull align 8 dereferenceable(32) %agg.tmp) #37
  call void @_ZNSaIcED1Ev(ptr noundef nonnull align 1 dereferenceable(1) %ref.tmp) #37
  br i1 %cleanup.isactive.0, label %cleanup.action, label %eh.resume

cleanup.action:                                   ; preds = %ehcleanup.thread, %ehcleanup
  %.pn8 = phi { ptr, i32 } [ %5, %ehcleanup.thread ], [ %6, %ehcleanup ]
  call void @__cxa_free_exception(ptr %exception) #37
  br label %eh.resume

if.end:                                           ; preds = %entry
  %size_.i = getelementptr inbounds i8, ptr %2, i64 32
  %7 = load i32, ptr %size_.i, align 8
  %conv = zext i32 %7 to i64
  ret i64 %conv

eh.resume:                                        ; preds = %ehcleanup, %cleanup.action
  %.pn7 = phi { ptr, i32 } [ %6, %ehcleanup ], [ %.pn8, %cleanup.action ]
  resume { ptr, i32 } %.pn7

unreachable:                                      ; preds = %invoke.cont6
  unreachable
}